target datalayout = "e-m:e-p270:32:32-p271:32:32-p272:64:64-i64:64-i128:128-f80:128-n8:16:32:64-S128"
target triple = "x86_64-pc-linux-gnu"

%struct.Abc_Ntk_t_ = type { i32, i32, ptr, ptr, ptr, ptr, ptr, ptr, ptr, ptr, ptr, ptr, ptr, [11 x i32], i32, i32, i32, i32, ptr, i32, ptr, ptr, i32, i32, i32, double, i32, %struct.Vec_Int_t_, ptr, ptr, ptr, ptr, ptr, float, i32, ptr, ptr, ptr, ptr, ptr, ptr, ptr, ptr, ptr, ptr, ptr, ptr, ptr, ptr, ptr, ptr, ptr, ptr, ptr, ptr, ptr, ptr }
%struct.Vec_Int_t_ = type { i32, i32, ptr }
%struct.Vec_Ptr_t_ = type { i32, i32, ptr }
%struct.Abc_Obj_t_ = type { ptr, ptr, i32, i32, %struct.Vec_Int_t_, %struct.Vec_Int_t_, %union.anon, %union.anon.0 }
%union.anon = type { ptr }
%union.anon.0 = type { ptr }

@.str.4 = private unnamed_addr constant [2 x i8] c"r\00", align 1
@.str.5 = private unnamed_addr constant [47 x i8] c"Io_ReadBenchInit(): Failed to open file \22%s\22.\0A\00", align 1
@.str.6 = private unnamed_addr constant [5 x i8] c" \0A\09\0D\00", align 1
@.str.7 = private unnamed_addr constant [58 x i8] c"Io_ReadBenchInit(): Cannot find register with output %s.\0A\00", align 1
@.str.8 = private unnamed_addr constant [61 x i8] c"Io_ReadBenchInit(): The signal is not a register output %s.\0A\00", align 1
@.str.9 = private unnamed_addr constant [67 x i8] c"Io_ReadBenchInit(): The signal %s has unknown initial value (%s).\0A\00", align 1

; Function Attrs: inlinehint nounwind uwtable
define internal ptr @Vec_PtrEntry(ptr noundef %0, i32 noundef %1) #4 {
  %3 = alloca ptr, align 8
  %4 = alloca i32, align 4
  store ptr %0, ptr %3, align 8, !tbaa !35
  store i32 %1, ptr %4, align 4, !tbaa !8
  %5 = load ptr, ptr %3, align 8, !tbaa !35
  %6 = getelementptr inbounds nuw %struct.Vec_Ptr_t_, ptr %5, i32 0, i32 2
  %7 = load ptr, ptr %6, align 8, !tbaa !38
  %8 = load i32, ptr %4, align 4, !tbaa !8
  %9 = sext i32 %8 to i64
  %10 = getelementptr inbounds ptr, ptr %7, i64 %9
  %11 = load ptr, ptr %10, align 8, !tbaa !39
  ret ptr %11
}

; Function Attrs: inlinehint nounwind uwtable
define internal ptr @Abc_ObjFanout0(ptr noundef %0) #4 {
  %2 = alloca ptr, align 8
  store ptr %0, ptr %2, align 8, !tbaa !40
  %3 = load ptr, ptr %2, align 8, !tbaa !40
  %4 = getelementptr inbounds nuw %struct.Abc_Obj_t_, ptr %3, i32 0, i32 0
  %5 = load ptr, ptr %4, align 8, !tbaa !51
  %6 = getelementptr inbounds nuw %struct.Abc_Ntk_t_, ptr %5, i32 0, i32 5
  %7 = load ptr, ptr %6, align 8, !tbaa !53
  %8 = getelementptr inbounds nuw %struct.Vec_Ptr_t_, ptr %7, i32 0, i32 2
  %9 = load ptr, ptr %8, align 8, !tbaa !38
  %10 = load ptr, ptr %2, align 8, !tbaa !40
  %11 = getelementptr inbounds nuw %struct.Abc_Obj_t_, ptr %10, i32 0, i32 5
  %12 = getelementptr inbounds nuw %struct.Vec_Int_t_, ptr %11, i32 0, i32 2
  %13 = load ptr, ptr %12, align 8, !tbaa !55
  %14 = getelementptr inbounds i32, ptr %13, i64 0
  %15 = load i32, ptr %14, align 4, !tbaa !8
  %16 = sext i32 %15 to i64
  %17 = getelementptr inbounds ptr, ptr %9, i64 %16
  %18 = load ptr, ptr %17, align 8, !tbaa !39
  ret ptr %18
}

; Function Attrs: inlinehint nounwind uwtable
define internal void @Abc_LatchSetInitDc(ptr noundef %0) #4 {
  %2 = alloca ptr, align 8
  store ptr %0, ptr %2, align 8, !tbaa !40
  %3 = load ptr, ptr %2, align 8, !tbaa !40
  %4 = getelementptr inbounds nuw %struct.Abc_Obj_t_, ptr %3, i32 0, i32 6
  store ptr inttoptr (i64 3 to ptr), ptr %4, align 8, !tbaa !44
  ret void
}

; Function Attrs: inlinehint nounwind uwtable
define internal void @Abc_LatchSetInit1(ptr noundef %0) #4 {
  %2 = alloca ptr, align 8
  store ptr %0, ptr %2, align 8, !tbaa !40
  %3 = load ptr, ptr %2, align 8, !tbaa !40
  %4 = getelementptr inbounds nuw %struct.Abc_Obj_t_, ptr %3, i32 0, i32 6
  store ptr inttoptr (i64 2 to ptr), ptr %4, align 8, !tbaa !44
  ret void
}

; Function Attrs: inlinehint nounwind uwtable
define internal void @Abc_LatchSetInit0(ptr noundef %0) #4 {
  %2 = alloca ptr, align 8
  store ptr %0, ptr %2, align 8, !tbaa !40
  %3 = load ptr, ptr %2, align 8, !tbaa !40
  %4 = getelementptr inbounds nuw %struct.Abc_Obj_t_, ptr %3, i32 0, i32 6
  store ptr inttoptr (i64 1 to ptr), ptr %4, align 8, !tbaa !44
  ret void
}

; Function Attrs: inlinehint nounwind uwtable
define internal i32 @Abc_ObjIsLatch(ptr noundef %0) #4 {
  %2 = alloca ptr, align 8
  store ptr %0, ptr %2, align 8, !tbaa !40
  %3 = load ptr, ptr %2, align 8, !tbaa !40
  %4 = getelementptr inbounds nuw %struct.Abc_Obj_t_, ptr %3, i32 0, i32 3
  %5 = load i32, ptr %4, align 4
  %6 = and i32 %5, 15
  %7 = icmp eq i32 %6, 8
  %8 = zext i1 %7 to i32
  ret i32 %8
}

; Function Attrs: inlinehint nounwind uwtable
define internal ptr @Abc_ObjFanin0(ptr noundef %0) #4 {
  %2 = alloca ptr, align 8
  store ptr %0, ptr %2, align 8, !tbaa !40
  %3 = load ptr, ptr %2, align 8, !tbaa !40
  %4 = getelementptr inbounds nuw %struct.Abc_Obj_t_, ptr %3, i32 0, i32 0
  %5 = load ptr, ptr %4, align 8, !tbaa !51
  %6 = getelementptr inbounds nuw %struct.Abc_Ntk_t_, ptr %5, i32 0, i32 5
  %7 = load ptr, ptr %6, align 8, !tbaa !53
  %8 = getelementptr inbounds nuw %struct.Vec_Ptr_t_, ptr %7, i32 0, i32 2
  %9 = load ptr, ptr %8, align 8, !tbaa !38
  %10 = load ptr, ptr %2, align 8, !tbaa !40
  %11 = getelementptr inbounds nuw %struct.Abc_Obj_t_, ptr %10, i32 0, i32 4
  %12 = getelementptr inbounds nuw %struct.Vec_Int_t_, ptr %11, i32 0, i32 2
  %13 = load ptr, ptr %12, align 8, !tbaa !54
  %14 = getelementptr inbounds i32, ptr %13, i64 0
  %15 = load i32, ptr %14, align 4, !tbaa !8
  %16 = sext i32 %15 to i64
  %17 = getelementptr inbounds ptr, ptr %9, i64 %16
  %18 = load ptr, ptr %17, align 8, !tbaa !39
  ret ptr %18
}

; Function Attrs: inlinehint nounwind uwtable
define internal ptr @Abc_NtkObj(ptr noundef %0, i32 noundef %1) #4 {
  %3 = alloca ptr, align 8
  %4 = alloca i32, align 4
  store ptr %0, ptr %3, align 8, !tbaa !12
  store i32 %1, ptr %4, align 4, !tbaa !8
  %5 = load ptr, ptr %3, align 8, !tbaa !12
  %6 = getelementptr inbounds nuw %struct.Abc_Ntk_t_, ptr %5, i32 0, i32 5
  %7 = load ptr, ptr %6, align 8, !tbaa !53
  %8 = load i32, ptr %4, align 4, !tbaa !8
  %9 = call ptr @Vec_PtrEntry(ptr noundef %7, i32 noundef %8)
  ret ptr %9
}

; Function Attrs: nounwind uwtable
define void @Io_ReadBenchInit(ptr noundef %0, ptr noundef %1) #0 {
  %3 = alloca ptr, align 8
  %4 = alloca ptr, align 8
  %5 = alloca [1000 x i8], align 16
  %6 = alloca ptr, align 8
  %7 = alloca ptr, align 8
  %8 = alloca ptr, align 8
  %9 = alloca i32, align 4
  %10 = alloca i32, align 4
  store ptr %0, ptr %3, align 8, !tbaa !12
  store ptr %1, ptr %4, align 8, !tbaa !3
  call void @llvm.lifetime.start.p0(i64 1000, ptr %5) #8
  call void @llvm.lifetime.start.p0(i64 8, ptr %6) #8
  call void @llvm.lifetime.start.p0(i64 8, ptr %7) #8
  call void @llvm.lifetime.start.p0(i64 8, ptr %8) #8
  call void @llvm.lifetime.start.p0(i64 4, ptr %9) #8
  %11 = load ptr, ptr %4, align 8, !tbaa !3
  %12 = call noalias ptr @fopen(ptr noundef %11, ptr noundef @.str.4)
  store ptr %12, ptr %6, align 8, !tbaa !31
  %13 = load ptr, ptr %6, align 8, !tbaa !31
  %14 = icmp eq ptr %13, null
  br i1 %14, label %15, label %18

15:                                               ; preds = %2
  %16 = load ptr, ptr %4, align 8, !tbaa !3
  %17 = call i32 (ptr, ...) @printf(ptr noundef @.str.5, ptr noundef %16)
  store i32 1, ptr %10, align 4
  br label %85

18:                                               ; preds = %2
  br label %19

19:                                               ; preds = %81, %73, %45, %34, %18
  %20 = getelementptr inbounds [1000 x i8], ptr %5, i64 0, i64 0
  %21 = load ptr, ptr %6, align 8, !tbaa !31
  %22 = call ptr @fgets(ptr noundef %20, i32 noundef 999, ptr noundef %21)
  %23 = icmp ne ptr %22, null
  br i1 %23, label %24, label %82

24:                                               ; preds = %19
  %25 = getelementptr inbounds [1000 x i8], ptr %5, i64 0, i64 0
  %26 = call ptr @strtok(ptr noundef %25, ptr noundef @.str.6) #8
  store ptr %26, ptr %7, align 8, !tbaa !3
  %27 = load ptr, ptr %3, align 8, !tbaa !12
  %28 = getelementptr inbounds nuw %struct.Abc_Ntk_t_, ptr %27, i32 0, i32 4
  %29 = load ptr, ptr %28, align 8, !tbaa !49
  %30 = load ptr, ptr %7, align 8, !tbaa !3
  %31 = call i32 @Nm_ManFindIdByName(ptr noundef %29, ptr noundef %30, i32 noundef 5)
  store i32 %31, ptr %9, align 4, !tbaa !8
  %32 = load i32, ptr %9, align 4, !tbaa !8
  %33 = icmp slt i32 %32, 0
  br i1 %33, label %34, label %37

34:                                               ; preds = %24
  %35 = load ptr, ptr %7, align 8, !tbaa !3
  %36 = call i32 (ptr, ...) @printf(ptr noundef @.str.7, ptr noundef %35)
  br label %19, !llvm.loop !50

37:                                               ; preds = %24
  %38 = load ptr, ptr %3, align 8, !tbaa !12
  %39 = load i32, ptr %9, align 4, !tbaa !8
  %40 = call ptr @Abc_NtkObj(ptr noundef %38, i32 noundef %39)
  %41 = call ptr @Abc_ObjFanin0(ptr noundef %40)
  store ptr %41, ptr %8, align 8, !tbaa !40
  %42 = load ptr, ptr %8, align 8, !tbaa !40
  %43 = call i32 @Abc_ObjIsLatch(ptr noundef %42)
  %44 = icmp ne i32 %43, 0
  br i1 %44, label %48, label %45

45:                                               ; preds = %37
  %46 = load ptr, ptr %7, align 8, !tbaa !3
  %47 = call i32 (ptr, ...) @printf(ptr noundef @.str.8, ptr noundef %46)
  br label %19, !llvm.loop !50

48:                                               ; preds = %37
  %49 = call ptr @strtok(ptr noundef null, ptr noundef @.str.6) #8
  store ptr %49, ptr %7, align 8, !tbaa !3
  %50 = load ptr, ptr %7, align 8, !tbaa !3
  %51 = getelementptr inbounds i8, ptr %50, i64 0
  %52 = load i8, ptr %51, align 1, !tbaa !44
  %53 = sext i8 %52 to i32
  %54 = icmp eq i32 %53, 48
  br i1 %54, label %55, label %57

55:                                               ; preds = %48
  %56 = load ptr, ptr %8, align 8, !tbaa !40
  call void @Abc_LatchSetInit0(ptr noundef %56)
  br label %81

57:                                               ; preds = %48
  %58 = load ptr, ptr %7, align 8, !tbaa !3
  %59 = getelementptr inbounds i8, ptr %58, i64 0
  %60 = load i8, ptr %59, align 1, !tbaa !44
  %61 = sext i8 %60 to i32
  %62 = icmp eq i32 %61, 49
  br i1 %62, label %63, label %65

63:                                               ; preds = %57
  %64 = load ptr, ptr %8, align 8, !tbaa !40
  call void @Abc_LatchSetInit1(ptr noundef %64)
  br label %80

65:                                               ; preds = %57
  %66 = load ptr, ptr %7, align 8, !tbaa !3
  %67 = getelementptr inbounds i8, ptr %66, i64 0
  %68 = load i8, ptr %67, align 1, !tbaa !44
  %69 = sext i8 %68 to i32
  %70 = icmp eq i32 %69, 50
  br i1 %70, label %71, label %73

71:                                               ; preds = %65
  %72 = load ptr, ptr %8, align 8, !tbaa !40
  call void @Abc_LatchSetInitDc(ptr noundef %72)
  br label %79

73:                                               ; preds = %65
  %74 = load ptr, ptr %8, align 8, !tbaa !40
  %75 = call ptr @Abc_ObjFanout0(ptr noundef %74)
  %76 = call ptr @Abc_ObjName(ptr noundef %75)
  %77 = load ptr, ptr %7, align 8, !tbaa !3
  %78 = call i32 (ptr, ...) @printf(ptr noundef @.str.9, ptr noundef %76, ptr noundef %77)
  br label %19, !llvm.loop !50

79:                                               ; preds = %71
  br label %80

80:                                               ; preds = %79, %63
  br label %81

81:                                               ; preds = %80, %55
  br label %19, !llvm.loop !50

82:                                               ; preds = %19
  %83 = load ptr, ptr %6, align 8, !tbaa !31
  %84 = call i32 @fclose(ptr noundef %83)
  store i32 0, ptr %10, align 4
  br label %85

85:                                               ; preds = %82, %15
  call void @llvm.lifetime.end.p0(i64 4, ptr %9) #8
  call void @llvm.lifetime.end.p0(i64 8, ptr %8) #8
  call void @llvm.lifetime.end.p0(i64 8, ptr %7) #8
  call void @llvm.lifetime.end.p0(i64 8, ptr %6) #8
  call void @llvm.lifetime.end.p0(i64 1000, ptr %5) #8
  %86 = load i32, ptr %10, align 4
  switch i32 %86, label %88 [
    i32 0, label %87
    i32 1, label %87
  ]

87:                                               ; preds = %85, %85
  ret void

88:                                               ; preds = %85
  unreachable
}