; Function Attrs: nounwind uwtable
define void @Io_ReadBenchInit(ptr noundef readonly captures(none) %0, ptr noundef %1) local_unnamed_addr #0 {
  %3 = alloca [1000 x i8], align 16
  call void @llvm.lifetime.start.p0(i64 1000, ptr nonnull %3) #12
  %4 = tail call noalias ptr @fopen(ptr noundef %1, ptr noundef nonnull @.str.4)
  %5 = icmp eq ptr %4, null
  br i1 %5, label %9, label %.preheader

.preheader:                                       ; preds = %2
  %6 = call ptr @fgets(ptr noundef nonnull %3, i32 noundef 999, ptr noundef nonnull %4)
  %.not28 = icmp eq ptr %6, null
  br i1 %.not28, label %._crit_edge, label %.lr.ph

.lr.ph:                                           ; preds = %.preheader
  %7 = getelementptr inbounds nuw i8, ptr %0, i64 24
  %8 = getelementptr i8, ptr %0, i64 32
  br label %11

9:                                                ; preds = %2
  %10 = tail call i32 (ptr, ...) @printf(ptr noundef nonnull dereferenceable(1) @.str.5, ptr noundef %1)
  br label %53

11:                                               ; preds = %.lr.ph, %.backedge
  %12 = call ptr @strtok(ptr noundef nonnull %3, ptr noundef nonnull @.str.6) #12
  %13 = load ptr, ptr %7, align 8, !tbaa !46
  %14 = call i32 @Nm_ManFindIdByName(ptr noundef %13, ptr noundef %12, i32 noundef 5) #12
  %15 = icmp slt i32 %14, 0
  br i1 %15, label %16, label %19

16:                                               ; preds = %11
  %17 = call i32 (ptr, ...) @printf(ptr noundef nonnull dereferenceable(1) @.str.7, ptr noundef %12)
  br label %.backedge

.backedge:                                        ; preds = %37, %41, %39, %16, %32, %43
  %18 = call ptr @fgets(ptr noundef nonnull %3, i32 noundef 999, ptr noundef nonnull %4)
  %.not = icmp eq ptr %18, null
  br i1 %.not, label %._crit_edge, label %11, !llvm.loop !47

19:                                               ; preds = %11
  %.val = load ptr, ptr %8, align 8, !tbaa !48
  %20 = getelementptr i8, ptr %.val, i64 8
  %.val.val = load ptr, ptr %20, align 8, !tbaa !33
  %21 = zext nneg i32 %14 to i64
  %22 = getelementptr inbounds nuw ptr, ptr %.val.val, i64 %21
  %23 = load ptr, ptr %22, align 8, !tbaa !34
  %.val22 = load ptr, ptr %23, align 8, !tbaa !49
  %24 = getelementptr i8, ptr %23, i64 32
  %.val23 = load ptr, ptr %24, align 8, !tbaa !50
  %25 = getelementptr i8, ptr %.val22, i64 32
  %.val22.val = load ptr, ptr %25, align 8, !tbaa !48
  %.val23.val = load i32, ptr %.val23, align 4, !tbaa !30
  %26 = getelementptr i8, ptr %.val22.val, i64 8
  %.val22.val.val = load ptr, ptr %26, align 8, !tbaa !33
  %27 = sext i32 %.val23.val to i64
  %28 = getelementptr inbounds ptr, ptr %.val22.val.val, i64 %27
  %29 = load ptr, ptr %28, align 8, !tbaa !34
  %30 = getelementptr i8, ptr %29, i64 20
  %.val24 = load i32, ptr %30, align 4
  %31 = and i32 %.val24, 15
  %.not27 = icmp eq i32 %31, 8
  br i1 %.not27, label %34, label %32

32:                                               ; preds = %19
  %33 = call i32 (ptr, ...) @printf(ptr noundef nonnull dereferenceable(1) @.str.8, ptr noundef %12)
  br label %.backedge

34:                                               ; preds = %19
  %35 = call ptr @strtok(ptr noundef null, ptr noundef nonnull @.str.6) #12
  %36 = load i8, ptr %35, align 1, !tbaa !37
  switch i8 %36, label %43 [
    i8 48, label %37
    i8 49, label %39
    i8 50, label %41
  ]

37:                                               ; preds = %34
  %38 = getelementptr inbounds nuw i8, ptr %29, i64 56
  store ptr inttoptr (i64 1 to ptr), ptr %38, align 8, !tbaa !37
  br label %.backedge

39:                                               ; preds = %34
  %40 = getelementptr inbounds nuw i8, ptr %29, i64 56
  store ptr inttoptr (i64 2 to ptr), ptr %40, align 8, !tbaa !37
  br label %.backedge

41:                                               ; preds = %34
  %42 = getelementptr inbounds nuw i8, ptr %29, i64 56
  store ptr inttoptr (i64 3 to ptr), ptr %42, align 8, !tbaa !37
  br label %.backedge

43:                                               ; preds = %34
  %.val25 = load ptr, ptr %29, align 8, !tbaa !49
  %44 = getelementptr i8, ptr %29, i64 48
  %.val26 = load ptr, ptr %44, align 8, !tbaa !51
  %45 = getelementptr i8, ptr %.val25, i64 32
  %.val25.val = load ptr, ptr %45, align 8, !tbaa !48
  %.val26.val = load i32, ptr %.val26, align 4, !tbaa !30
  %46 = getelementptr i8, ptr %.val25.val, i64 8
  %.val25.val.val = load ptr, ptr %46, align 8, !tbaa !33
  %47 = sext i32 %.val26.val to i64
  %48 = getelementptr inbounds ptr, ptr %.val25.val.val, i64 %47
  %49 = load ptr, ptr %48, align 8, !tbaa !34
  %50 = call ptr @Abc_ObjName(ptr noundef %49) #12
  %51 = call i32 (ptr, ...) @printf(ptr noundef nonnull dereferenceable(1) @.str.9, ptr noundef %50, ptr noundef nonnull %35)
  br label %.backedge

._crit_edge:                                      ; preds = %.backedge, %.preheader
  %52 = call i32 @fclose(ptr noundef nonnull %4)
  br label %53

53:                                               ; preds = %._crit_edge, %9
  call void @llvm.lifetime.end.p0(i64 1000, ptr nonnull %3) #12
  ret void
}